target datalayout = "e-m:e-p270:32:32-p271:32:32-p272:64:64-i64:64-i128:128-f80:128-n8:16:32:64-S128"
target triple = "x86_64-unknown-linux-gnu"

%struct.nstime_t = type { i64 }
%struct.malloc_mutex_s = type { %union.anon }
%union.anon = type { %struct.anon }
%struct.anon = type { %struct.mutex_prof_data_t, %union.pthread_mutex_t, %struct.atomic_b_t }
%struct.mutex_prof_data_t = type { %struct.nstime_t, %struct.nstime_t, i64, i64, i32, %struct.atomic_u32_t, i64, ptr, i64 }
%struct.atomic_u32_t = type { i32 }
%union.pthread_mutex_t = type { %struct.__pthread_mutex_s }
%struct.__pthread_mutex_s = type { i32, i32, i32, i32, i32, i16, i16, %struct.__pthread_internal_list }
%struct.__pthread_internal_list = type { ptr, ptr }
%struct.atomic_b_t = type { i8 }
%union.pthread_mutexattr_t = type { i32 }
%struct.witness_s = type { ptr, i32, ptr, ptr, %struct.anon.0 }
%struct.anon.0 = type { ptr, ptr }

@.str = private unnamed_addr constant [50 x i8] c"<jemalloc>: Error re-initializing mutex in child\0A\00", align 1
@opt_abort = external global i8, align 1
@nstime_zero = internal constant %struct.nstime_t zeroinitializer, align 8

; Function Attrs: nounwind uwtable
define internal void @mutex_prof_data_init(ptr noundef %data) #0 {
entry:
  %time.addr.i1 = alloca ptr, align 8
  %time.addr.i = alloca ptr, align 8
  %data.addr = alloca ptr, align 8
  store ptr %data, ptr %data.addr, align 8
  %0 = load ptr, ptr %data.addr, align 8
  call void @llvm.memset.p0.i64(ptr align 8 %0, i8 0, i64 64, i1 false)
  %1 = load ptr, ptr %data.addr, align 8
  %max_wait_time = getelementptr inbounds %struct.mutex_prof_data_t, ptr %1, i32 0, i32 1
  store ptr %max_wait_time, ptr %time.addr.i1, align 8
  %2 = load ptr, ptr %time.addr.i1, align 8
  call void @nstime_copy(ptr noundef %2, ptr noundef @nstime_zero) #5
  %3 = load ptr, ptr %data.addr, align 8
  %tot_wait_time = getelementptr inbounds %struct.mutex_prof_data_t, ptr %3, i32 0, i32 0
  store ptr %tot_wait_time, ptr %time.addr.i, align 8
  %4 = load ptr, ptr %time.addr.i, align 8
  call void @nstime_copy(ptr noundef %4, ptr noundef @nstime_zero) #5
  %5 = load ptr, ptr %data.addr, align 8
  %prev_owner = getelementptr inbounds %struct.mutex_prof_data_t, ptr %5, i32 0, i32 7
  store ptr null, ptr %prev_owner, align 8
  ret void
}

; Function Attrs: nounwind uwtable
define hidden zeroext i1 @malloc_mutex_init(ptr noundef %mutex, ptr noundef %name, i32 noundef %rank, i32 noundef %lock_order) #0 {
entry:
  %retval = alloca i1, align 1
  %mutex.addr = alloca ptr, align 8
  %name.addr = alloca ptr, align 8
  %rank.addr = alloca i32, align 4
  %lock_order.addr = alloca i32, align 4
  %attr = alloca %union.pthread_mutexattr_t, align 4
  store ptr %mutex, ptr %mutex.addr, align 8
  store ptr %name, ptr %name.addr, align 8
  store i32 %rank, ptr %rank.addr, align 4
  store i32 %lock_order, ptr %lock_order.addr, align 4
  %0 = load ptr, ptr %mutex.addr, align 8
  %1 = getelementptr inbounds %struct.malloc_mutex_s, ptr %0, i32 0, i32 0
  %prof_data = getelementptr inbounds %struct.anon, ptr %1, i32 0, i32 0
  call void @mutex_prof_data_init(ptr noundef %prof_data)
  %call = call i32 @pthread_mutexattr_init(ptr noundef %attr) #5
  %cmp = icmp ne i32 %call, 0
  br i1 %cmp, label %if.then, label %if.end

if.then:                                          ; preds = %entry
  store i1 true, ptr %retval, align 1
  br label %return

if.end:                                           ; preds = %entry
  %call1 = call i32 @pthread_mutexattr_settype(ptr noundef %attr, i32 noundef 0) #5
  %2 = load ptr, ptr %mutex.addr, align 8
  %3 = getelementptr inbounds %struct.malloc_mutex_s, ptr %2, i32 0, i32 0
  %lock = getelementptr inbounds %struct.anon, ptr %3, i32 0, i32 1
  %call2 = call i32 @pthread_mutex_init(ptr noundef %lock, ptr noundef %attr) #5
  %cmp3 = icmp ne i32 %call2, 0
  br i1 %cmp3, label %if.then4, label %if.end6

if.then4:                                         ; preds = %if.end
  %call5 = call i32 @pthread_mutexattr_destroy(ptr noundef %attr) #5
  store i1 true, ptr %retval, align 1
  br label %return

if.end6:                                          ; preds = %if.end
  %call7 = call i32 @pthread_mutexattr_destroy(ptr noundef %attr) #5
  store i1 false, ptr %retval, align 1
  br label %return

return:                                           ; preds = %if.end6, %if.then4, %if.then
  %4 = load i1, ptr %retval, align 1
  ret i1 %4
}

; Function Attrs: nounwind uwtable
define hidden void @malloc_mutex_postfork_child(ptr noundef %tsdn, ptr noundef %mutex) #0 {
entry:
  %tsdn.addr = alloca ptr, align 8
  %mutex.addr = alloca ptr, align 8
  store ptr %tsdn, ptr %tsdn.addr, align 8
  store ptr %mutex, ptr %mutex.addr, align 8
  %0 = load ptr, ptr %mutex.addr, align 8
  %1 = load ptr, ptr %mutex.addr, align 8
  %2 = getelementptr inbounds %struct.malloc_mutex_s, ptr %1, i32 0, i32 0
  %name = getelementptr inbounds %struct.witness_s, ptr %2, i32 0, i32 0
  %3 = load ptr, ptr %name, align 8
  %4 = load ptr, ptr %mutex.addr, align 8
  %5 = getelementptr inbounds %struct.malloc_mutex_s, ptr %4, i32 0, i32 0
  %rank = getelementptr inbounds %struct.witness_s, ptr %5, i32 0, i32 1
  %6 = load i32, ptr %rank, align 8
  %7 = load ptr, ptr %mutex.addr, align 8
  %8 = getelementptr inbounds %struct.malloc_mutex_s, ptr %7, i32 0, i32 0
  %9 = load i32, ptr %8, align 8
  %call = call zeroext i1 @malloc_mutex_init(ptr noundef %0, ptr noundef %3, i32 noundef %6, i32 noundef %9)
  br i1 %call, label %if.then, label %if.end2

if.then:                                          ; preds = %entry
  call void (ptr, ...) @malloc_printf(ptr noundef @.str)
  %10 = load i8, ptr @opt_abort, align 1
  %tobool = trunc i8 %10 to i1
  br i1 %tobool, label %if.then1, label %if.end

if.then1:                                         ; preds = %if.then
  call void @abort() #6
  unreachable

if.end:                                           ; preds = %if.then
  br label %if.end2

if.end2:                                          ; preds = %if.end, %entry
  ret void
}